Certificate:
    Data:
        Version: 3 (0x2)
        Serial Number: 11581236168220170915 (0xa0b8d0ef5aab5aa3)
    Signature Algorithm: sha1WithRSAEncryption
        Issuer: C=US, ST=Maryland, L=Forest Hill, O=The Apache Software Foundation, OU=Apache Thrift, CN=ssltest/emailAddress=dev@thrift.apache.org
        Validity
            Not Before: Feb  9 17:00:56 2014 GMT
            Not After : Apr 28 17:00:56 2022 GMT
        Subject: C=US, ST=Maryland, L=Forest Hill, O=The Apache Software Foundation, OU=Apache Thrift, CN=ssltest/emailAddress=dev@thrift.apache.org
        Subject Public Key Info:
            Public Key Algorithm: rsaEncryption
                Public-Key: (2048 bit)
                Modulus:
                    00:cb:9c:cc:3b:79:75:ae:8c:d2:0f:7e:b6:b8:f9:
                    0d:fe:3f:5f:3d:5e:63:8b:5f:e8:28:78:83:a3:d2:
                    5a:02:93:76:b9:d9:a5:78:b1:b5:da:18:4a:65:de:
                    f4:d2:25:11:ea:4a:af:b4:c5:ae:a5:26:93:ba:60:
                    c6:42:c6:8f:ea:6b:a1:b2:01:23:4b:ca:f4:66:16:
                    33:17:3c:0f:69:9e:0f:a2:19:66:40:f1:ff:87:12:
                    e7:be:6d:a4:a2:f6:42:68:e6:96:a5:52:59:91:37:
                    f1:1d:18:b8:fa:38:c6:39:4d:59:ce:fe:0a:f2:b9:
                    77:a7:66:0a:0c:a9:bc:ac:9e:d1:09:a2:f0:ea:35:
                    4f:32:87:df:42:f7:0c:42:31:9f:65:7a:b0:44:5f:
                    5e:15:77:00:8b:a1:db:ca:a7:e7:29:a1:47:8d:a2:
                    fd:a7:13:ae:21:78:85:5f:fb:1a:07:26:88:19:c0:
                    88:f7:8c:5e:7e:3b:65:d0:91:69:5b:f4:d4:30:22:
                    72:5f:c8:98:64:85:a3:ef:40:dc:30:4b:cc:ff:21:
                    fb:d4:2f:16:a8:80:3a:9e:e0:4a:57:cb:06:3c:d6:
                    d7:12:a2:e8:af:bd:d7:0b:5e:9d:ac:fa:0e:64:87:
                    b4:6c:95:32:c4:27:5e:22:a2:ca:2f:90:13:9c:69:
                    1f:a1
                Exponent: 65537 (0x10001)
        X509v3 extensions:
            X509v3 Subject Key Identifier: 
                8B:AF:08:81:ED:2A:C5:56:EB:78:88:35:1A:42:A5:61:52:CB:9E:BA
            X509v3 Authority Key Identifier: 
                keyid:8B:AF:08:81:ED:2A:C5:56:EB:78:88:35:1A:42:A5:61:52:CB:9E:BA

            X509v3 Basic Constraints: 
                CA:TRUE
    Signature Algorithm: sha1WithRSAEncryption
         55:58:01:fb:3e:66:01:3f:7e:c4:ab:b0:04:59:dd:e6:7d:e0:
         80:b9:13:aa:91:1f:b3:f6:c8:ec:8e:f7:a6:13:c6:52:d1:22:
         78:98:a8:26:0b:97:b4:8c:e0:96:23:f2:4e:bf:42:37:f1:8d:
         ea:93:53:85:d7:d1:6d:99:5c:d6:35:fa:c7:d4:d6:50:13:bb:
         31:db:79:8e:ad:cf:16:72:b5:4b:b7:96:66:0e:39:f1:ef:53:
         2c:8b:04:06:eb:02:45:d9:cb:e0:8a:88:3f:37:dd:e0:41:52:
         d3:f1:35:de:3a:9c:9e:4a:40:f2:0d:e8:5a:8a:44:1e:44:a5:
         6e:9e:49:74:68:84:2a:12:9b:2f:08:e1:05:48:df:11:8d:78:
         d8:19:ce:71:8c:e7:c9:e1:2c:3f:bc:55:0d:a3:df:f4:84:9e:
         e9:06:c5:25:7a:ee:ea:0d:c9:ec:99:eb:44:0a:62:0f:93:2d:
         d4:84:b5:be:06:87:1c:ce:4c:e1:fe:6f:7d:b8:17:0d:60:8a:
         94:df:9e:b2:48:9b:3d:6a:98:50:2d:38:f4:bb:20:91:b0:42:
         38:d2:fe:77:c0:99:5f:8f:e2:05:e3:da:d5:34:54:70:91:51:
         c2:3c:55:1a:9d:2b:81:85:6e:71:9a:a4:fa:47:5b:1e:e7:40:
         e4:8c:1e:d1
-----BEGIN CERTIFICATE-----
MIIEMzCCAxugAwIBAgIJAKC40O9aq1qjMA0GCSqGSIb3DQEBBQUAMIGvMQswCQYD
VQQGEwJVUzERMA8GA1UECAwITWFyeWxhbmQxFDASBgNVBAcMC0ZvcmVzdCBIaWxs
MScwJQYDVQQKDB5UaGUgQXBhY2hlIFNvZnR3YXJlIEZvdW5kYXRpb24xFjAUBgNV
BAsMDUFwYWNoZSBUaHJpZnQxEDAOBgNVBAMMB3NzbHRlc3QxJDAiBgkqhkiG9w0B
CQEWFWRldkB0aHJpZnQuYXBhY2hlLm9yZzAeFw0xNDAyMDkxNzAwNTZaFw0yMjA0
MjgxNzAwNTZaMIGvMQswCQYDVQQGEwJVUzERMA8GA1UECAwITWFyeWxhbmQxFDAS
BgNVBAcMC0ZvcmVzdCBIaWxsMScwJQYDVQQKDB5UaGUgQXBhY2hlIFNvZnR3YXJl
IEZvdW5kYXRpb24xFjAUBgNVBAsMDUFwYWNoZSBUaHJpZnQxEDAOBgNVBAMMB3Nz
bHRlc3QxJDAiBgkqhkiG9w0BCQEWFWRldkB0aHJpZnQuYXBhY2hlLm9yZzCCASIw
DQYJKoZIhvcNAQEBBQADggEPADCCAQoCggEBAMuczDt5da6M0g9+trj5Df4/Xz1e
Y4tf6Ch4g6PSWgKTdrnZpXixtdoYSmXe9NIlEepKr7TFrqUmk7pgxkLGj+probIB
I0vK9GYWMxc8D2meD6IZZkDx/4cS575tpKL2QmjmlqVSWZE38R0YuPo4xjlNWc7+
CvK5d6dmCgypvKye0Qmi8Oo1TzKH30L3DEIxn2V6sERfXhV3AIuh28qn5ymhR42i
/acTriF4hV/7GgcmiBnAiPeMXn47ZdCRaVv01DAicl/ImGSFo+9A3DBLzP8h+9Qv
FqiAOp7gSlfLBjzW1xKi6K+91wtenaz6DmSHtGyVMsQnXiKiyi+QE5xpH6ECAwEA
AaNQME4wHQYDVR0OBBYEFIuvCIHtKsVW63iINRpCpWFSy566MB8GA1UdIwQYMBaA
FIuvCIHtKsVW63iINRpCpWFSy566MAwGA1UdEwQFMAMBAf8wDQYJKoZIhvcNAQEF
BQADggEBAFVYAfs+ZgE/fsSrsARZ3eZ94IC5E6qRH7P2yOyO96YTxlLRIniYqCYL
l7SM4JYj8k6/QjfxjeqTU4XX0W2ZXNY1+sfU1lATuzHbeY6tzxZytUu3lmYOOfHv
UyyLBAbrAkXZy+CKiD833eBBUtPxNd46nJ5KQPIN6FqKRB5EpW6eSXRohCoSmy8I
4QVI3xGNeNgZznGM58nhLD+8VQ2j3/SEnukGxSV67uoNyeyZ60QKYg+TLdSEtb4G
hxzOTOH+b324Fw1gipTfnrJImz1qmFAtOPS7IJGwQjjS/nfAmV+P4gXj2tU0VHCR
UcI8VRqdK4GFbnGapPpHWx7nQOSMHtE=
-----END CERTIFICATE-----
